; ModuleID = '23/250.c'
source_filename = "23/250.c"
target datalayout = "e-m:e-p270:32:32-p271:32:32-p272:64:64-i64:64-f80:128-n8:16:32:64-S128"
target triple = "x86_64-pc-linux-gnu"

@.str = private unnamed_addr constant [3 x i8] c"%c\00", align 1
@.str.1 = private unnamed_addr constant [2 x i8] c" \00", align 1
@.str.2 = private unnamed_addr constant [2 x i8] c"\0A\00", align 1

; Function Attrs: noinline nounwind uwtable
define dso_local void @main() #0 {
  %1 = alloca [100 x i8], align 16
  %2 = alloca [100 x i8], align 16
  %3 = alloca i32, align 4
  %4 = alloca i32, align 4
  %5 = alloca i32, align 4
  %6 = alloca i8, align 1
  %7 = getelementptr inbounds [100 x i8], [100 x i8]* %1, i64 0, i64 0
  %8 = call i32 (i8*, ...) bitcast (i32 (...)* @gets to i32 (i8*, ...)*)(i8* %7)
  store i32 0, i32* %4, align 4
  br label %9

9:                                                ; preds = %22, %0
  %10 = load i32, i32* %4, align 4
  %11 = icmp slt i32 %10, 100
  br i1 %11, label %12, label %19

12:                                               ; preds = %9
  %13 = load i32, i32* %4, align 4
  %14 = sext i32 %13 to i64
  %15 = getelementptr inbounds [100 x i8], [100 x i8]* %1, i64 0, i64 %14
  %16 = load i8, i8* %15, align 1
  store i8 %16, i8* %6, align 1
  %17 = sext i8 %16 to i32
  %18 = icmp ne i32 %17, 0
  br label %19

19:                                               ; preds = %12, %9
  %20 = phi i1 [ false, %9 ], [ %18, %12 ]
  br i1 %20, label %21, label %25

21:                                               ; preds = %19
  br label %22

22:                                               ; preds = %21
  %23 = load i32, i32* %4, align 4
  %24 = add nsw i32 %23, 1
  store i32 %24, i32* %4, align 4
  br label %9

25:                                               ; preds = %19
  %26 = load i32, i32* %4, align 4
  %27 = add nsw i32 %26, -1
  store i32 %27, i32* %4, align 4
  %28 = load i32, i32* %4, align 4
  store i32 %28, i32* %3, align 4
  br label %29

29:                                               ; preds = %98, %25
  %30 = load i32, i32* %3, align 4
  %31 = icmp sge i32 %30, 0
  br i1 %31, label %32, label %101

32:                                               ; preds = %29
  %33 = load i32, i32* %3, align 4
  %34 = sext i32 %33 to i64
  %35 = getelementptr inbounds [100 x i8], [100 x i8]* %1, i64 0, i64 %34
  %36 = load i8, i8* %35, align 1
  %37 = sext i8 %36 to i32
  %38 = icmp eq i32 %37, 32
  br i1 %38, label %39, label %71

39:                                               ; preds = %32
  store i32 0, i32* %5, align 4
  br label %40

40:                                               ; preds = %63, %39
  %41 = load i32, i32* %5, align 4
  %42 = load i32, i32* %4, align 4
  %43 = load i32, i32* %3, align 4
  %44 = sub nsw i32 %42, %43
  %45 = icmp slt i32 %41, %44
  br i1 %45, label %46, label %66

46:                                               ; preds = %40
  %47 = load i32, i32* %3, align 4
  %48 = add nsw i32 %47, 1
  %49 = load i32, i32* %5, align 4
  %50 = add nsw i32 %48, %49
  %51 = sext i32 %50 to i64
  %52 = getelementptr inbounds [100 x i8], [100 x i8]* %1, i64 0, i64 %51
  %53 = load i8, i8* %52, align 1
  %54 = load i32, i32* %5, align 4
  %55 = sext i32 %54 to i64
  %56 = getelementptr inbounds [100 x i8], [100 x i8]* %2, i64 0, i64 %55
  store i8 %53, i8* %56, align 1
  %57 = load i32, i32* %5, align 4
  %58 = sext i32 %57 to i64
  %59 = getelementptr inbounds [100 x i8], [100 x i8]* %2, i64 0, i64 %58
  %60 = load i8, i8* %59, align 1
  %61 = sext i8 %60 to i32
  %62 = call i32 (i8*, ...) @printf(i8* getelementptr inbounds ([3 x i8], [3 x i8]* @.str, i64 0, i64 0), i32 %61)
  br label %63

63:                                               ; preds = %46
  %64 = load i32, i32* %5, align 4
  %65 = add nsw i32 %64, 1
  store i32 %65, i32* %5, align 4
  br label %40

66:                                               ; preds = %40
  %67 = call i32 (i8*, ...) @printf(i8* getelementptr inbounds ([2 x i8], [2 x i8]* @.str.1, i64 0, i64 0))
  %68 = load i32, i32* %3, align 4
  %69 = sub nsw i32 %68, 1
  store i32 %69, i32* %4, align 4
  %70 = load i32, i32* %4, align 4
  store i32 %70, i32* %3, align 4
  br label %71

71:                                               ; preds = %66, %32
  %72 = load i32, i32* %3, align 4
  %73 = icmp eq i32 %72, 0
  br i1 %73, label %74, label %97

74:                                               ; preds = %71
  store i32 0, i32* %5, align 4
  br label %75

75:                                               ; preds = %93, %74
  %76 = load i32, i32* %5, align 4
  %77 = load i32, i32* %4, align 4
  %78 = icmp sle i32 %76, %77
  br i1 %78, label %79, label %96

79:                                               ; preds = %75
  %80 = load i32, i32* %5, align 4
  %81 = sext i32 %80 to i64
  %82 = getelementptr inbounds [100 x i8], [100 x i8]* %1, i64 0, i64 %81
  %83 = load i8, i8* %82, align 1
  %84 = load i32, i32* %5, align 4
  %85 = sext i32 %84 to i64
  %86 = getelementptr inbounds [100 x i8], [100 x i8]* %2, i64 0, i64 %85
  store i8 %83, i8* %86, align 1
  %87 = load i32, i32* %5, align 4
  %88 = sext i32 %87 to i64
  %89 = getelementptr inbounds [100 x i8], [100 x i8]* %2, i64 0, i64 %88
  %90 = load i8, i8* %89, align 1
  %91 = sext i8 %90 to i32
  %92 = call i32 (i8*, ...) @printf(i8* getelementptr inbounds ([3 x i8], [3 x i8]* @.str, i64 0, i64 0), i32 %91)
  br label %93

93:                                               ; preds = %79
  %94 = load i32, i32* %5, align 4
  %95 = add nsw i32 %94, 1
  store i32 %95, i32* %5, align 4
  br label %75

96:                                               ; preds = %75
  br label %97

97:                                               ; preds = %96, %71
  br label %98

98:                                               ; preds = %97
  %99 = load i32, i32* %3, align 4
  %100 = add nsw i32 %99, -1
  store i32 %100, i32* %3, align 4
  br label %29

101:                                              ; preds = %29
  %102 = call i32 (i8*, ...) @printf(i8* getelementptr inbounds ([2 x i8], [2 x i8]* @.str.2, i64 0, i64 0))
  ret void
}

declare dso_local i32 @gets(...) #1

declare dso_local i32 @printf(i8*, ...) #1


!llvm.module.flags = !{!0}
!llvm.ident = !{!1}

!0 = !{i32 1, !"wchar_size", i32 4}
!1 = !{!"clang version 10.0.0-4ubuntu1 "}
